target datalayout = "e-m:e-p270:32:32-p271:32:32-p272:64:64-i64:64-i128:128-f80:128-n8:16:32:64-S128"
target triple = "x86_64-pc-linux-gnu"

%struct._php_core_globals = type { i64, i8, i8, i8, i8, i8, i8, i8, i8, ptr, ptr, i64, i64, i64, ptr, ptr, ptr, ptr, ptr, i8, ptr, ptr, ptr, ptr, i64, ptr, ptr, ptr, ptr, ptr, ptr, ptr, %struct._arg_separators, ptr, %struct._zend_array, i16, i8, i8, %struct._zend_llist, [6 x %struct._zval_struct], i8, i8, i8, i8, i8, ptr, ptr, i64, [8 x i8], i8, i8, i8, i8, i8, i8, i32, i32, ptr, ptr, ptr, ptr, i64, i64, ptr, i64, ptr, ptr, i8, i8, i8, i8, i8, i8, i64, ptr, i64, i64 }
%struct._arg_separators = type { ptr, ptr }
%struct._zend_array = type { %struct._zend_refcounted_h, %union.anon.0, i32, %union.anon.1, i32, i32, i32, i32, i64, ptr }
%struct._zend_refcounted_h = type { i32, %union.anon }
%union.anon = type { i32 }
%union.anon.0 = type { i32 }
%union.anon.1 = type { ptr }
%struct._zend_llist = type { ptr, ptr, i64, i64, ptr, i8, ptr }
%struct._zval_struct = type { %union._zend_value, %union.anon.3, %union.anon.6 }
%union._zend_value = type { i64 }
%union.anon.3 = type { i32 }
%union.anon.6 = type { i32 }
%struct._zend_stack = type { i32, i32, i32, ptr }
%struct._zend_compiler_globals = type { %struct._zend_stack, ptr, ptr, i32, ptr, ptr, ptr, ptr, i8, i8, i8, i8, i8, %struct._zend_llist, ptr, i8, i8, i8, i8, ptr, i32, i32, %struct._zend_oparray_context, %struct._zend_file_context, ptr, %struct._zend_array, ptr, i64, i8, i8, i8, ptr, ptr, %struct._zend_stack, ptr, i32, ptr, ptr, i64, i64, ptr, ptr, ptr, ptr, i32, ptr, i32, %struct._zend_stack }
%struct._zend_oparray_context = type { ptr, ptr, i32, i32, i32, i32, i32, i32, i32, ptr, ptr, ptr, i32, i8 }
%struct._zend_file_context = type { %struct._zend_declarables, ptr, i8, i8, ptr, ptr, ptr, %struct._zend_array }
%struct._zend_declarables = type { i64 }

@core_globals = dso_local global %struct._php_core_globals zeroinitializer, align 8
@module_shutdown = internal global i8 0, align 1
@module_initialized = internal global i8 0, align 1
@compiler_globals = external global %struct._zend_compiler_globals, align 8
@zend_post_shutdown_cb = external global ptr, align 8

; Function Attrs: nounwind uwtable
define internal void @core_globals_dtor(ptr noundef %0) #1 {
  %2 = alloca ptr, align 8
  store ptr %0, ptr %2, align 8, !tbaa !229
  %3 = load ptr, ptr %2, align 8, !tbaa !229
  %4 = getelementptr inbounds nuw %struct._php_core_globals, ptr %3, i32 0, i32 57
  %5 = load ptr, ptr %4, align 8, !tbaa !199
  %6 = icmp ne ptr %5, null
  %7 = xor i1 %6, true
  call void @llvm.assume(i1 %7)
  %8 = load ptr, ptr %2, align 8, !tbaa !229
  %9 = getelementptr inbounds nuw %struct._php_core_globals, ptr %8, i32 0, i32 58
  %10 = load ptr, ptr %9, align 8, !tbaa !202
  %11 = icmp ne ptr %10, null
  %12 = xor i1 %11, true
  call void @llvm.assume(i1 %12)
  %13 = load ptr, ptr %2, align 8, !tbaa !229
  %14 = getelementptr inbounds nuw %struct._php_core_globals, ptr %13, i32 0, i32 60
  %15 = load ptr, ptr %14, align 8, !tbaa !228
  %16 = icmp ne ptr %15, null
  br i1 %16, label %17, label %21

17:                                               ; preds = %1
  %18 = load ptr, ptr %2, align 8, !tbaa !229
  %19 = getelementptr inbounds nuw %struct._php_core_globals, ptr %18, i32 0, i32 60
  %20 = load ptr, ptr %19, align 8, !tbaa !228
  call void @free(ptr noundef %20) #18
  br label %21

21:                                               ; preds = %17, %1
  %22 = load ptr, ptr %2, align 8, !tbaa !229
  %23 = getelementptr inbounds nuw %struct._php_core_globals, ptr %22, i32 0, i32 21
  %24 = load ptr, ptr %23, align 8, !tbaa !226
  %25 = icmp ne ptr %24, null
  br i1 %25, label %26, label %30

26:                                               ; preds = %21
  %27 = load ptr, ptr %2, align 8, !tbaa !229
  %28 = getelementptr inbounds nuw %struct._php_core_globals, ptr %27, i32 0, i32 21
  %29 = load ptr, ptr %28, align 8, !tbaa !226
  call void @free(ptr noundef %29) #18
  br label %30

30:                                               ; preds = %26, %21
  %31 = load ptr, ptr %2, align 8, !tbaa !229
  call void @php_shutdown_ticks(ptr noundef %31)
  ret void
}

; Function Attrs: nounwind uwtable
define dso_local void @php_module_shutdown() #1 {
  %1 = alloca i32, align 4
  %2 = alloca i32, align 4
  %3 = alloca ptr, align 8
  call void @llvm.lifetime.start.p0(i64 4, ptr %1) #18
  store i32 0, ptr %1, align 4, !tbaa !50
  store i8 1, ptr @module_shutdown, align 1, !tbaa !47
  %4 = load i8, ptr @module_initialized, align 1, !tbaa !47, !range !48, !noundef !49
  %5 = trunc i8 %4 to i1
  br i1 %5, label %7, label %6

6:                                                ; preds = %0
  store i32 1, ptr %2, align 4
  br label %20

7:                                                ; preds = %0
  call void @zend_interned_strings_switch_storage(i1 noundef zeroext false)
  %8 = call i32 @sapi_flush()
  call void @zend_shutdown()
  %9 = load i32, ptr %1, align 4, !tbaa !50
  call void @php_shutdown_stream_wrappers(i32 noundef %9)
  %10 = load i32, ptr %1, align 4, !tbaa !50
  call void @zend_unregister_ini_entries_ex(i32 noundef %10, i32 noundef 1)
  %11 = call i32 @php_shutdown_config()
  call void @clear_last_error()
  call void @zend_ini_shutdown()
  %12 = load i8, ptr getelementptr inbounds nuw (%struct._zend_compiler_globals, ptr @compiler_globals, i32 0, i32 11), align 1, !tbaa !155, !range !48, !noundef !49
  %13 = trunc i8 %12 to i1
  call void @shutdown_memory_manager(i1 noundef zeroext %13, i1 noundef zeroext true)
  call void @php_output_shutdown()
  call void @zend_interned_strings_dtor()
  %14 = load ptr, ptr @zend_post_shutdown_cb, align 8, !tbaa !56
  %15 = icmp ne ptr %14, null
  br i1 %15, label %16, label %19

16:                                               ; preds = %7
  call void @llvm.lifetime.start.p0(i64 8, ptr %3) #18
  %17 = load ptr, ptr @zend_post_shutdown_cb, align 8, !tbaa !56
  store ptr %17, ptr %3, align 8, !tbaa !56
  store ptr null, ptr @zend_post_shutdown_cb, align 8, !tbaa !56
  %18 = load ptr, ptr %3, align 8, !tbaa !56
  call void %18()
  call void @llvm.lifetime.end.p0(i64 8, ptr %3) #18
  br label %19

19:                                               ; preds = %16, %7
  store i8 0, ptr @module_initialized, align 1, !tbaa !47
  call void @core_globals_dtor(ptr noundef @core_globals)
  call void @gc_globals_dtor()
  call void @zend_observer_shutdown()
  store i32 0, ptr %2, align 4
  br label %20

20:                                               ; preds = %19, %6
  call void @llvm.lifetime.end.p0(i64 4, ptr %1) #18
  %21 = load i32, ptr %2, align 4
  switch i32 %21, label %23 [
    i32 0, label %22
    i32 1, label %22
  ]

22:                                               ; preds = %20, %20
  ret void

23:                                               ; preds = %20
  unreachable
}