; Function Attrs: nounwind uwtable
define dso_local void @php_module_shutdown() local_unnamed_addr #2 {
  store i1 true, ptr @module_shutdown, align 1
  %.b2 = load i1, ptr @module_initialized, align 1
  br i1 %.b2, label %1, label %16

1:                                                ; preds = %0
  tail call void @zend_interned_strings_switch_storage(i1 noundef zeroext false) #28
  %2 = tail call i32 @sapi_flush() #28
  tail call void @zend_shutdown() #28
  tail call void @php_shutdown_stream_wrappers(i32 noundef 0) #28
  tail call void @zend_unregister_ini_entries_ex(i32 noundef 0, i32 noundef 1) #28
  %3 = tail call i32 @php_shutdown_config() #28
  tail call fastcc void @clear_last_error()
  tail call void @zend_ini_shutdown() #28
  %4 = load i8, ptr getelementptr inbounds nuw (i8, ptr @compiler_globals, i64 83), align 1, !tbaa !144, !range !45, !noundef !46
  %5 = trunc nuw i8 %4 to i1
  tail call void @shutdown_memory_manager(i1 noundef zeroext %5, i1 noundef zeroext true) #28
  tail call void @php_output_shutdown() #28
  tail call void @zend_interned_strings_dtor() #28
  %6 = load ptr, ptr @zend_post_shutdown_cb, align 8, !tbaa !148
  %.not = icmp eq ptr %6, null
  br i1 %.not, label %8, label %7

7:                                                ; preds = %1
  store ptr null, ptr @zend_post_shutdown_cb, align 8, !tbaa !148
  tail call void %6() #28
  br label %8

8:                                                ; preds = %7, %1
  store i1 false, ptr @module_initialized, align 1
  %9 = load ptr, ptr getelementptr inbounds nuw (i8, ptr @core_globals, i64 496), align 8, !tbaa !192
  %.not.i = icmp eq ptr %9, null
  tail call void @llvm.assume(i1 %.not.i)
  %10 = load ptr, ptr getelementptr inbounds nuw (i8, ptr @core_globals, i64 504), align 8, !tbaa !186
  %.not8.i = icmp eq ptr %10, null
  tail call void @llvm.assume(i1 %.not8.i)
  %11 = load ptr, ptr getelementptr inbounds nuw (i8, ptr @core_globals, i64 520), align 8, !tbaa !175
  %.not9.i = icmp eq ptr %11, null
  br i1 %.not9.i, label %13, label %12

12:                                               ; preds = %8
  tail call void @free(ptr noundef nonnull %11) #28
  br label %13

13:                                               ; preds = %12, %8
  %14 = load ptr, ptr getelementptr inbounds nuw (i8, ptr @core_globals, i64 112), align 8, !tbaa !168
  %.not10.i = icmp eq ptr %14, null
  br i1 %.not10.i, label %core_globals_dtor.exit, label %15

15:                                               ; preds = %13
  tail call void @free(ptr noundef nonnull %14) #28
  br label %core_globals_dtor.exit

core_globals_dtor.exit:                           ; preds = %13, %15
  tail call void @php_shutdown_ticks(ptr noundef nonnull @core_globals) #28
  tail call void @gc_globals_dtor() #28
  tail call void @zend_observer_shutdown() #28
  br label %16

16:                                               ; preds = %0, %core_globals_dtor.exit
  ret void
}